target datalayout = "e-m:e-p270:32:32-p271:32:32-p272:64:64-i64:64-i128:128-f80:128-n8:16:32:64-S128"
target triple = "x86_64-pc-linux-gnu"

%struct.dh_st = type { i32, i32, %struct.ffc_params_st, i32, ptr, ptr, i32, ptr, %struct.CRYPTO_REF_COUNT, %struct.crypto_ex_data_st, ptr, ptr, ptr, ptr, i64 }
%struct.ffc_params_st = type { ptr, ptr, ptr, ptr, ptr, i64, i32, i32, i32, i32, i32, ptr, ptr, i32 }
%struct.CRYPTO_REF_COUNT = type { i32 }
%struct.crypto_ex_data_st = type { ptr, ptr }
%struct.evp_pkey_st = type { i32, i32, ptr, ptr, ptr, %union.legacy_pkey_st, %union.legacy_pkey_st, %struct.CRYPTO_REF_COUNT, ptr, ptr, i32, i8, %struct.crypto_ex_data_st, ptr, ptr, i64, ptr, i64, %struct.anon }
%union.legacy_pkey_st = type { ptr }
%struct.anon = type { i32, i32, i32 }

; Function Attrs: nounwind uwtable
define internal i32 @dh_cmp_parameters(ptr noundef %0, ptr noundef %1) #0 {
  %3 = alloca ptr, align 8
  %4 = alloca ptr, align 8
  store ptr %0, ptr %3, align 8, !tbaa !32
  store ptr %1, ptr %4, align 8, !tbaa !32
  %5 = load ptr, ptr %3, align 8, !tbaa !32
  %6 = getelementptr inbounds nuw %struct.evp_pkey_st, ptr %5, i32 0, i32 5
  %7 = load ptr, ptr %6, align 8, !tbaa !53
  %8 = getelementptr inbounds nuw %struct.dh_st, ptr %7, i32 0, i32 2
  %9 = load ptr, ptr %4, align 8, !tbaa !32
  %10 = getelementptr inbounds nuw %struct.evp_pkey_st, ptr %9, i32 0, i32 5
  %11 = load ptr, ptr %10, align 8, !tbaa !53
  %12 = getelementptr inbounds nuw %struct.dh_st, ptr %11, i32 0, i32 2
  %13 = load ptr, ptr %3, align 8, !tbaa !32
  %14 = getelementptr inbounds nuw %struct.evp_pkey_st, ptr %13, i32 0, i32 2
  %15 = load ptr, ptr %14, align 8, !tbaa !44
  %16 = icmp ne ptr %15, @ossl_dhx_asn1_meth
  %17 = zext i1 %16 to i32
  %18 = call i32 @ossl_ffc_params_cmp(ptr noundef %8, ptr noundef %12, i32 noundef %17)
  ret i32 %18
}