; Function Attrs: nounwind uwtable
define internal i32 @dh_cmp_parameters(ptr noundef readonly captures(none) %0, ptr noundef readonly captures(none) %1) #0 {
  %3 = getelementptr inbounds nuw i8, ptr %0, i64 32
  %4 = load ptr, ptr %3, align 8, !tbaa !42
  %5 = getelementptr inbounds nuw i8, ptr %4, i64 8
  %6 = getelementptr inbounds nuw i8, ptr %1, i64 32
  %7 = load ptr, ptr %6, align 8, !tbaa !42
  %8 = getelementptr inbounds nuw i8, ptr %7, i64 8
  %9 = getelementptr inbounds nuw i8, ptr %0, i64 8
  %10 = load ptr, ptr %9, align 8, !tbaa !33
  %11 = icmp ne ptr %10, @ossl_dhx_asn1_meth
  %12 = zext i1 %11 to i32
  %13 = tail call i32 @ossl_ffc_params_cmp(ptr noundef nonnull %5, ptr noundef nonnull %8, i32 noundef %12) #5
  ret i32 %13
}